; Function Attrs: mustprogress uwtable
define { ptr, ptr } @_ZNK3gmx21FileNameOptionStorage9fileTypesEv(ptr noundef nonnull align 8 dereferenceable(244) %0) local_unnamed_addr #0 align 2 {
  %2 = getelementptr inbounds i8, ptr %0, i64 224
  %3 = load i32, ptr %2, align 8
  %4 = icmp slt i32 %3, 0
  br i1 %4, label %15, label %5

5:                                                ; preds = %1
  %6 = tail call noundef i32 @_Z17ftp2generic_counti(i32 noundef %3)
  %7 = icmp sgt i32 %6, 0
  br i1 %7, label %8, label %13

8:                                                ; preds = %5
  %9 = load i32, ptr %2, align 8
  %10 = tail call noundef ptr @_Z16ftp2generic_listi(i32 noundef %9)
  %11 = zext nneg i32 %6 to i64
  %.not.i = icmp eq ptr %10, null
  %12 = getelementptr inbounds i32, ptr %10, i64 %11
  %spec.select.i = select i1 %.not.i, ptr null, ptr %12
  br label %15

13:                                               ; preds = %5
  %14 = getelementptr inbounds i8, ptr %0, i64 228
  br label %15

15:                                               ; preds = %1, %13, %8
  %.sroa.0.0 = phi ptr [ %10, %8 ], [ %2, %13 ], [ null, %1 ]
  %.sroa.4.0 = phi ptr [ %spec.select.i, %8 ], [ %14, %13 ], [ null, %1 ]
  %.fca.0.insert = insertvalue { ptr, ptr } poison, ptr %.sroa.0.0, 0
  %.fca.1.insert = insertvalue { ptr, ptr } %.fca.0.insert, ptr %.sroa.4.0, 1
  ret { ptr, ptr } %.fca.1.insert
}